target datalayout = "e-m:e-p270:32:32-p271:32:32-p272:64:64-i64:64-i128:128-f80:128-n8:16:32:64-S128"
target triple = "x86_64-unknown-linux-gnu"

%struct.SHA256state_st = type { [8 x i32], i32, i32, [16 x i32], i32, i32 }

@SHA256.m = internal global [32 x i8] zeroinitializer, align 16

; Function Attrs: nounwind uwtable
define internal void @crypto_store_htobe32(ptr noundef %dst, i32 noundef %v) #0 {
entry:
  %dst.addr = alloca ptr, align 8
  %v.addr = alloca i32, align 4
  store ptr %dst, ptr %dst.addr, align 8
  store i32 %v, ptr %v.addr, align 4
  %0 = load i32, ptr %v.addr, align 4
  %call = call i32 @__bswap_32(i32 noundef %0)
  store i32 %call, ptr %v.addr, align 4
  %1 = load ptr, ptr %dst.addr, align 8
  call void @llvm.memcpy.p0.p0.i64(ptr align 1 %1, ptr align 4 %v.addr, i64 4, i1 false)
  ret void
}

; Function Attrs: nounwind uwtable
define internal i32 @__bswap_32(i32 noundef %__bsx) #0 {
entry:
  %__bsx.addr = alloca i32, align 4
  store i32 %__bsx, ptr %__bsx.addr, align 4
  %0 = load i32, ptr %__bsx.addr, align 4
  %and = and i32 %0, -16777216
  %shr = lshr i32 %and, 24
  %1 = load i32, ptr %__bsx.addr, align 4
  %and1 = and i32 %1, 16711680
  %shr2 = lshr i32 %and1, 8
  %or = or i32 %shr, %shr2
  %2 = load i32, ptr %__bsx.addr, align 4
  %and3 = and i32 %2, 65280
  %shl = shl i32 %and3, 8
  %or4 = or i32 %or, %shl
  %3 = load i32, ptr %__bsx.addr, align 4
  %and5 = and i32 %3, 255
  %shl6 = shl i32 %and5, 24
  %or7 = or i32 %or4, %shl6
  ret i32 %or7
}

; Function Attrs: nounwind uwtable
define dso_local i32 @SHA256_Final(ptr noundef %md, ptr noundef %c) #0 {
entry:
  %retval = alloca i32, align 4
  %md.addr = alloca ptr, align 8
  %c.addr = alloca ptr, align 8
  %p = alloca ptr, align 8
  %n = alloca i64, align 8
  %nn = alloca i32, align 4
  store ptr %md, ptr %md.addr, align 8
  store ptr %c, ptr %c.addr, align 8
  %0 = load ptr, ptr %c.addr, align 8
  %data = getelementptr inbounds %struct.SHA256state_st, ptr %0, i32 0, i32 3
  %arraydecay = getelementptr inbounds [16 x i32], ptr %data, i64 0, i64 0
  store ptr %arraydecay, ptr %p, align 8
  %1 = load ptr, ptr %c.addr, align 8
  %num = getelementptr inbounds %struct.SHA256state_st, ptr %1, i32 0, i32 4
  %2 = load i32, ptr %num, align 4
  %conv = zext i32 %2 to i64
  store i64 %conv, ptr %n, align 8
  %3 = load ptr, ptr %p, align 8
  %4 = load i64, ptr %n, align 8
  %arrayidx = getelementptr inbounds i8, ptr %3, i64 %4
  store i8 -128, ptr %arrayidx, align 1
  %5 = load i64, ptr %n, align 8
  %inc = add i64 %5, 1
  store i64 %inc, ptr %n, align 8
  %6 = load i64, ptr %n, align 8
  %cmp = icmp ugt i64 %6, 56
  br i1 %cmp, label %if.then, label %if.end

if.then:                                          ; preds = %entry
  %7 = load ptr, ptr %p, align 8
  %8 = load i64, ptr %n, align 8
  %add.ptr = getelementptr inbounds i8, ptr %7, i64 %8
  %9 = load i64, ptr %n, align 8
  %sub = sub i64 64, %9
  call void @llvm.memset.p0.i64(ptr align 1 %add.ptr, i8 0, i64 %sub, i1 false)
  store i64 0, ptr %n, align 8
  %10 = load ptr, ptr %c.addr, align 8
  %11 = load ptr, ptr %p, align 8
  call void @sha256_block_data_order(ptr noundef %10, ptr noundef %11, i64 noundef 1)
  br label %if.end

if.end:                                           ; preds = %if.then, %entry
  %12 = load ptr, ptr %p, align 8
  %13 = load i64, ptr %n, align 8
  %add.ptr2 = getelementptr inbounds i8, ptr %12, i64 %13
  %14 = load i64, ptr %n, align 8
  %sub3 = sub i64 56, %14
  call void @llvm.memset.p0.i64(ptr align 1 %add.ptr2, i8 0, i64 %sub3, i1 false)
  %15 = load ptr, ptr %c.addr, align 8
  %Nh = getelementptr inbounds %struct.SHA256state_st, ptr %15, i32 0, i32 2
  %16 = load i32, ptr %Nh, align 4
  %call = call i32 @__bswap_32(i32 noundef %16)
  %17 = load ptr, ptr %c.addr, align 8
  %data4 = getelementptr inbounds %struct.SHA256state_st, ptr %17, i32 0, i32 3
  %arrayidx5 = getelementptr inbounds [16 x i32], ptr %data4, i64 0, i64 14
  store i32 %call, ptr %arrayidx5, align 4
  %18 = load ptr, ptr %c.addr, align 8
  %Nl = getelementptr inbounds %struct.SHA256state_st, ptr %18, i32 0, i32 1
  %19 = load i32, ptr %Nl, align 4
  %call6 = call i32 @__bswap_32(i32 noundef %19)
  %20 = load ptr, ptr %c.addr, align 8
  %data7 = getelementptr inbounds %struct.SHA256state_st, ptr %20, i32 0, i32 3
  %arrayidx8 = getelementptr inbounds [16 x i32], ptr %data7, i64 0, i64 15
  store i32 %call6, ptr %arrayidx8, align 4
  %21 = load ptr, ptr %c.addr, align 8
  %22 = load ptr, ptr %p, align 8
  call void @sha256_block_data_order(ptr noundef %21, ptr noundef %22, i64 noundef 1)
  %23 = load ptr, ptr %c.addr, align 8
  %num9 = getelementptr inbounds %struct.SHA256state_st, ptr %23, i32 0, i32 4
  store i32 0, ptr %num9, align 4
  %24 = load ptr, ptr %p, align 8
  call void @llvm.memset.p0.i64(ptr align 1 %24, i8 0, i64 64, i1 false)
  %25 = load ptr, ptr %c.addr, align 8
  %md_len = getelementptr inbounds %struct.SHA256state_st, ptr %25, i32 0, i32 5
  %26 = load i32, ptr %md_len, align 4
  switch i32 %26, label %sw.default [
    i32 32, label %sw.bb
  ]

sw.bb:                                            ; preds = %if.end
  store i32 0, ptr %nn, align 4
  br label %for.cond

for.cond:                                         ; preds = %for.inc, %sw.bb
  %27 = load i32, ptr %nn, align 4
  %cmp10 = icmp ult i32 %27, 8
  br i1 %cmp10, label %for.body, label %for.end

for.body:                                         ; preds = %for.cond
  %28 = load ptr, ptr %md.addr, align 8
  %29 = load ptr, ptr %c.addr, align 8
  %h = getelementptr inbounds %struct.SHA256state_st, ptr %29, i32 0, i32 0
  %30 = load i32, ptr %nn, align 4
  %idxprom = zext i32 %30 to i64
  %arrayidx12 = getelementptr inbounds [8 x i32], ptr %h, i64 0, i64 %idxprom
  %31 = load i32, ptr %arrayidx12, align 4
  call void @crypto_store_htobe32(ptr noundef %28, i32 noundef %31)
  %32 = load ptr, ptr %md.addr, align 8
  %add.ptr13 = getelementptr inbounds i8, ptr %32, i64 4
  store ptr %add.ptr13, ptr %md.addr, align 8
  br label %for.inc

for.inc:                                          ; preds = %for.body
  %33 = load i32, ptr %nn, align 4
  %inc14 = add i32 %33, 1
  store i32 %inc14, ptr %nn, align 4
  br label %for.cond, !llvm.loop !8

for.end:                                          ; preds = %for.cond
  br label %sw.epilog

sw.default:                                       ; preds = %if.end
  %34 = load ptr, ptr %c.addr, align 8
  %md_len15 = getelementptr inbounds %struct.SHA256state_st, ptr %34, i32 0, i32 5
  %35 = load i32, ptr %md_len15, align 4
  %cmp16 = icmp ugt i32 %35, 32
  br i1 %cmp16, label %if.then18, label %if.end19

if.then18:                                        ; preds = %sw.default
  store i32 0, ptr %retval, align 4
  br label %return

if.end19:                                         ; preds = %sw.default
  store i32 0, ptr %nn, align 4
  br label %for.cond20

for.cond20:                                       ; preds = %for.inc29, %if.end19
  %36 = load i32, ptr %nn, align 4
  %37 = load ptr, ptr %c.addr, align 8
  %md_len21 = getelementptr inbounds %struct.SHA256state_st, ptr %37, i32 0, i32 5
  %38 = load i32, ptr %md_len21, align 4
  %div = udiv i32 %38, 4
  %cmp22 = icmp ult i32 %36, %div
  br i1 %cmp22, label %for.body24, label %for.end31

for.body24:                                       ; preds = %for.cond20
  %39 = load ptr, ptr %md.addr, align 8
  %40 = load ptr, ptr %c.addr, align 8
  %h25 = getelementptr inbounds %struct.SHA256state_st, ptr %40, i32 0, i32 0
  %41 = load i32, ptr %nn, align 4
  %idxprom26 = zext i32 %41 to i64
  %arrayidx27 = getelementptr inbounds [8 x i32], ptr %h25, i64 0, i64 %idxprom26
  %42 = load i32, ptr %arrayidx27, align 4
  call void @crypto_store_htobe32(ptr noundef %39, i32 noundef %42)
  %43 = load ptr, ptr %md.addr, align 8
  %add.ptr28 = getelementptr inbounds i8, ptr %43, i64 4
  store ptr %add.ptr28, ptr %md.addr, align 8
  br label %for.inc29

for.inc29:                                        ; preds = %for.body24
  %44 = load i32, ptr %nn, align 4
  %inc30 = add i32 %44, 1
  store i32 %inc30, ptr %nn, align 4
  br label %for.cond20, !llvm.loop !9

for.end31:                                        ; preds = %for.cond20
  br label %sw.epilog

sw.epilog:                                        ; preds = %for.end31, %for.end
  store i32 1, ptr %retval, align 4
  br label %return

return:                                           ; preds = %sw.epilog, %if.then18
  %45 = load i32, ptr %retval, align 4
  ret i32 %45
}

; Function Attrs: nounwind uwtable
define dso_local i32 @SHA256_Update(ptr noundef %c, ptr noundef %data_, i64 noundef %len) #0 {
entry:
  %retval = alloca i32, align 4
  %c.addr = alloca ptr, align 8
  %data_.addr = alloca ptr, align 8
  %len.addr = alloca i64, align 8
  %data = alloca ptr, align 8
  %p = alloca ptr, align 8
  %l = alloca i32, align 4
  %n = alloca i64, align 8
  store ptr %c, ptr %c.addr, align 8
  store ptr %data_, ptr %data_.addr, align 8
  store i64 %len, ptr %len.addr, align 8
  %0 = load ptr, ptr %data_.addr, align 8
  store ptr %0, ptr %data, align 8
  %1 = load i64, ptr %len.addr, align 8
  %cmp = icmp eq i64 %1, 0
  br i1 %cmp, label %if.then, label %if.end

if.then:                                          ; preds = %entry
  store i32 1, ptr %retval, align 4
  br label %return

if.end:                                           ; preds = %entry
  %2 = load ptr, ptr %c.addr, align 8
  %Nl = getelementptr inbounds %struct.SHA256state_st, ptr %2, i32 0, i32 1
  %3 = load i32, ptr %Nl, align 4
  %4 = load i64, ptr %len.addr, align 8
  %conv = trunc i64 %4 to i32
  %shl = shl i32 %conv, 3
  %add = add i32 %3, %shl
  %conv1 = zext i32 %add to i64
  %and = and i64 %conv1, 4294967295
  %conv2 = trunc i64 %and to i32
  store i32 %conv2, ptr %l, align 4
  %5 = load i32, ptr %l, align 4
  %6 = load ptr, ptr %c.addr, align 8
  %Nl3 = getelementptr inbounds %struct.SHA256state_st, ptr %6, i32 0, i32 1
  %7 = load i32, ptr %Nl3, align 4
  %cmp4 = icmp ult i32 %5, %7
  br i1 %cmp4, label %if.then6, label %if.end7

if.then6:                                         ; preds = %if.end
  %8 = load ptr, ptr %c.addr, align 8
  %Nh = getelementptr inbounds %struct.SHA256state_st, ptr %8, i32 0, i32 2
  %9 = load i32, ptr %Nh, align 4
  %inc = add i32 %9, 1
  store i32 %inc, ptr %Nh, align 4
  br label %if.end7

if.end7:                                          ; preds = %if.then6, %if.end
  %10 = load i64, ptr %len.addr, align 8
  %shr = lshr i64 %10, 29
  %conv8 = trunc i64 %shr to i32
  %11 = load ptr, ptr %c.addr, align 8
  %Nh9 = getelementptr inbounds %struct.SHA256state_st, ptr %11, i32 0, i32 2
  %12 = load i32, ptr %Nh9, align 4
  %add10 = add i32 %12, %conv8
  store i32 %add10, ptr %Nh9, align 4
  %13 = load i32, ptr %l, align 4
  %14 = load ptr, ptr %c.addr, align 8
  %Nl11 = getelementptr inbounds %struct.SHA256state_st, ptr %14, i32 0, i32 1
  store i32 %13, ptr %Nl11, align 4
  %15 = load ptr, ptr %c.addr, align 8
  %num = getelementptr inbounds %struct.SHA256state_st, ptr %15, i32 0, i32 4
  %16 = load i32, ptr %num, align 4
  %conv12 = zext i32 %16 to i64
  store i64 %conv12, ptr %n, align 8
  %17 = load i64, ptr %n, align 8
  %cmp13 = icmp ne i64 %17, 0
  br i1 %cmp13, label %if.then15, label %if.end32

if.then15:                                        ; preds = %if.end7
  %18 = load ptr, ptr %c.addr, align 8
  %data16 = getelementptr inbounds %struct.SHA256state_st, ptr %18, i32 0, i32 3
  %arraydecay = getelementptr inbounds [16 x i32], ptr %data16, i64 0, i64 0
  store ptr %arraydecay, ptr %p, align 8
  %19 = load i64, ptr %len.addr, align 8
  %cmp17 = icmp uge i64 %19, 64
  br i1 %cmp17, label %if.then22, label %lor.lhs.false

lor.lhs.false:                                    ; preds = %if.then15
  %20 = load i64, ptr %len.addr, align 8
  %21 = load i64, ptr %n, align 8
  %add19 = add i64 %20, %21
  %cmp20 = icmp uge i64 %add19, 64
  br i1 %cmp20, label %if.then22, label %if.else

if.then22:                                        ; preds = %lor.lhs.false, %if.then15
  %22 = load ptr, ptr %p, align 8
  %23 = load i64, ptr %n, align 8
  %add.ptr = getelementptr inbounds i8, ptr %22, i64 %23
  %24 = load ptr, ptr %data, align 8
  %25 = load i64, ptr %n, align 8
  %sub = sub i64 64, %25
  call void @llvm.memcpy.p0.p0.i64(ptr align 1 %add.ptr, ptr align 1 %24, i64 %sub, i1 false)
  %26 = load ptr, ptr %c.addr, align 8
  %27 = load ptr, ptr %p, align 8
  call void @sha256_block_data_order(ptr noundef %26, ptr noundef %27, i64 noundef 1)
  %28 = load i64, ptr %n, align 8
  %sub23 = sub i64 64, %28
  store i64 %sub23, ptr %n, align 8
  %29 = load i64, ptr %n, align 8
  %30 = load ptr, ptr %data, align 8
  %add.ptr24 = getelementptr inbounds i8, ptr %30, i64 %29
  store ptr %add.ptr24, ptr %data, align 8
  %31 = load i64, ptr %n, align 8
  %32 = load i64, ptr %len.addr, align 8
  %sub25 = sub i64 %32, %31
  store i64 %sub25, ptr %len.addr, align 8
  %33 = load ptr, ptr %c.addr, align 8
  %num26 = getelementptr inbounds %struct.SHA256state_st, ptr %33, i32 0, i32 4
  store i32 0, ptr %num26, align 4
  %34 = load ptr, ptr %p, align 8
  call void @llvm.memset.p0.i64(ptr align 1 %34, i8 0, i64 64, i1 false)
  br label %if.end31

if.else:                                          ; preds = %lor.lhs.false
  %35 = load ptr, ptr %p, align 8
  %36 = load i64, ptr %n, align 8
  %add.ptr27 = getelementptr inbounds i8, ptr %35, i64 %36
  %37 = load ptr, ptr %data, align 8
  %38 = load i64, ptr %len.addr, align 8
  call void @llvm.memcpy.p0.p0.i64(ptr align 1 %add.ptr27, ptr align 1 %37, i64 %38, i1 false)
  %39 = load i64, ptr %len.addr, align 8
  %conv28 = trunc i64 %39 to i32
  %40 = load ptr, ptr %c.addr, align 8
  %num29 = getelementptr inbounds %struct.SHA256state_st, ptr %40, i32 0, i32 4
  %41 = load i32, ptr %num29, align 4
  %add30 = add i32 %41, %conv28
  store i32 %add30, ptr %num29, align 4
  store i32 1, ptr %retval, align 4
  br label %return

if.end31:                                         ; preds = %if.then22
  br label %if.end32

if.end32:                                         ; preds = %if.end31, %if.end7
  %42 = load i64, ptr %len.addr, align 8
  %div = udiv i64 %42, 64
  store i64 %div, ptr %n, align 8
  %43 = load i64, ptr %n, align 8
  %cmp33 = icmp ugt i64 %43, 0
  br i1 %cmp33, label %if.then35, label %if.end38

if.then35:                                        ; preds = %if.end32
  %44 = load ptr, ptr %c.addr, align 8
  %45 = load ptr, ptr %data, align 8
  %46 = load i64, ptr %n, align 8
  call void @sha256_block_data_order(ptr noundef %44, ptr noundef %45, i64 noundef %46)
  %47 = load i64, ptr %n, align 8
  %mul = mul i64 %47, 64
  store i64 %mul, ptr %n, align 8
  %48 = load i64, ptr %n, align 8
  %49 = load ptr, ptr %data, align 8
  %add.ptr36 = getelementptr inbounds i8, ptr %49, i64 %48
  store ptr %add.ptr36, ptr %data, align 8
  %50 = load i64, ptr %n, align 8
  %51 = load i64, ptr %len.addr, align 8
  %sub37 = sub i64 %51, %50
  store i64 %sub37, ptr %len.addr, align 8
  br label %if.end38

if.end38:                                         ; preds = %if.then35, %if.end32
  %52 = load i64, ptr %len.addr, align 8
  %cmp39 = icmp ne i64 %52, 0
  br i1 %cmp39, label %if.then41, label %if.end46

if.then41:                                        ; preds = %if.end38
  %53 = load ptr, ptr %c.addr, align 8
  %data42 = getelementptr inbounds %struct.SHA256state_st, ptr %53, i32 0, i32 3
  %arraydecay43 = getelementptr inbounds [16 x i32], ptr %data42, i64 0, i64 0
  store ptr %arraydecay43, ptr %p, align 8
  %54 = load i64, ptr %len.addr, align 8
  %conv44 = trunc i64 %54 to i32
  %55 = load ptr, ptr %c.addr, align 8
  %num45 = getelementptr inbounds %struct.SHA256state_st, ptr %55, i32 0, i32 4
  store i32 %conv44, ptr %num45, align 4
  %56 = load ptr, ptr %p, align 8
  %57 = load ptr, ptr %data, align 8
  %58 = load i64, ptr %len.addr, align 8
  call void @llvm.memcpy.p0.p0.i64(ptr align 1 %56, ptr align 1 %57, i64 %58, i1 false)
  br label %if.end46

if.end46:                                         ; preds = %if.then41, %if.end38
  store i32 1, ptr %retval, align 4
  br label %return

return:                                           ; preds = %if.end46, %if.else, %if.then
  %59 = load i32, ptr %retval, align 4
  ret i32 %59
}

; Function Attrs: nounwind uwtable
define dso_local i32 @SHA256_Init(ptr noundef %c) #0 {
entry:
  %c.addr = alloca ptr, align 8
  store ptr %c, ptr %c.addr, align 8
  %0 = load ptr, ptr %c.addr, align 8
  call void @llvm.memset.p0.i64(ptr align 4 %0, i8 0, i64 112, i1 false)
  %1 = load ptr, ptr %c.addr, align 8
  %h = getelementptr inbounds %struct.SHA256state_st, ptr %1, i32 0, i32 0
  %arrayidx = getelementptr inbounds [8 x i32], ptr %h, i64 0, i64 0
  store i32 1779033703, ptr %arrayidx, align 4
  %2 = load ptr, ptr %c.addr, align 8
  %h1 = getelementptr inbounds %struct.SHA256state_st, ptr %2, i32 0, i32 0
  %arrayidx2 = getelementptr inbounds [8 x i32], ptr %h1, i64 0, i64 1
  store i32 -1150833019, ptr %arrayidx2, align 4
  %3 = load ptr, ptr %c.addr, align 8
  %h3 = getelementptr inbounds %struct.SHA256state_st, ptr %3, i32 0, i32 0
  %arrayidx4 = getelementptr inbounds [8 x i32], ptr %h3, i64 0, i64 2
  store i32 1013904242, ptr %arrayidx4, align 4
  %4 = load ptr, ptr %c.addr, align 8
  %h5 = getelementptr inbounds %struct.SHA256state_st, ptr %4, i32 0, i32 0
  %arrayidx6 = getelementptr inbounds [8 x i32], ptr %h5, i64 0, i64 3
  store i32 -1521486534, ptr %arrayidx6, align 4
  %5 = load ptr, ptr %c.addr, align 8
  %h7 = getelementptr inbounds %struct.SHA256state_st, ptr %5, i32 0, i32 0
  %arrayidx8 = getelementptr inbounds [8 x i32], ptr %h7, i64 0, i64 4
  store i32 1359893119, ptr %arrayidx8, align 4
  %6 = load ptr, ptr %c.addr, align 8
  %h9 = getelementptr inbounds %struct.SHA256state_st, ptr %6, i32 0, i32 0
  %arrayidx10 = getelementptr inbounds [8 x i32], ptr %h9, i64 0, i64 5
  store i32 -1694144372, ptr %arrayidx10, align 4
  %7 = load ptr, ptr %c.addr, align 8
  %h11 = getelementptr inbounds %struct.SHA256state_st, ptr %7, i32 0, i32 0
  %arrayidx12 = getelementptr inbounds [8 x i32], ptr %h11, i64 0, i64 6
  store i32 528734635, ptr %arrayidx12, align 4
  %8 = load ptr, ptr %c.addr, align 8
  %h13 = getelementptr inbounds %struct.SHA256state_st, ptr %8, i32 0, i32 0
  %arrayidx14 = getelementptr inbounds [8 x i32], ptr %h13, i64 0, i64 7
  store i32 1541459225, ptr %arrayidx14, align 4
  %9 = load ptr, ptr %c.addr, align 8
  %md_len = getelementptr inbounds %struct.SHA256state_st, ptr %9, i32 0, i32 5
  store i32 32, ptr %md_len, align 4
  ret i32 1
}

; Function Attrs: nounwind uwtable
define dso_local ptr @SHA256(ptr noundef %d, i64 noundef %n, ptr noundef %md) #0 {
entry:
  %d.addr = alloca ptr, align 8
  %n.addr = alloca i64, align 8
  %md.addr = alloca ptr, align 8
  %c = alloca %struct.SHA256state_st, align 4
  store ptr %d, ptr %d.addr, align 8
  store i64 %n, ptr %n.addr, align 8
  store ptr %md, ptr %md.addr, align 8
  %0 = load ptr, ptr %md.addr, align 8
  %cmp = icmp eq ptr %0, null
  br i1 %cmp, label %if.then, label %if.end

if.then:                                          ; preds = %entry
  store ptr @SHA256.m, ptr %md.addr, align 8
  br label %if.end

if.end:                                           ; preds = %if.then, %entry
  %call = call i32 @SHA256_Init(ptr noundef %c)
  %1 = load ptr, ptr %d.addr, align 8
  %2 = load i64, ptr %n.addr, align 8
  %call1 = call i32 @SHA256_Update(ptr noundef %c, ptr noundef %1, i64 noundef %2)
  %3 = load ptr, ptr %md.addr, align 8
  %call2 = call i32 @SHA256_Final(ptr noundef %3, ptr noundef %c)
  call void @llvm.memset.p0.i64(ptr align 4 %c, i8 0, i64 112, i1 false)
  %4 = load ptr, ptr %md.addr, align 8
  ret ptr %4
}