; Function Attrs: nofree norecurse nosync nounwind memory(readwrite, inaccessiblemem: none) uwtable
define dso_local noundef nonnull ptr @SHA256(ptr noundef %d, i64 noundef %n, ptr noundef writeonly %md) local_unnamed_addr #2 {
entry:
  %c = alloca %struct.SHA256state_st, align 16
  %cmp = icmp eq ptr %md, null
  %spec.store.select = select i1 %cmp, ptr @SHA256.m, ptr %md
  %0 = getelementptr inbounds i8, ptr %c, i64 32
  call void @llvm.memset.p0.i64(ptr noundef nonnull align 16 dereferenceable(112) %0, i8 0, i64 76, i1 false)
  store <4 x i32> <i32 1779033703, i32 -1150833019, i32 1013904242, i32 -1521486534>, ptr %c, align 16
  %arrayidx8.i = getelementptr inbounds i8, ptr %c, i64 16
  store <4 x i32> <i32 1359893119, i32 -1694144372, i32 528734635, i32 1541459225>, ptr %arrayidx8.i, align 16
  %md_len.i = getelementptr inbounds i8, ptr %c, i64 108
  store i32 32, ptr %md_len.i, align 4
  %cmp.i = icmp eq i64 %n, 0
  br i1 %cmp.i, label %SHA256_Update.exit, label %if.end32.i

if.end32.i:                                       ; preds = %entry
  %conv.i = trunc i64 %n to i32
  %shl.i = shl i32 %conv.i, 3
  %Nh.i = getelementptr inbounds i8, ptr %c, i64 36
  %shr.i = lshr i64 %n, 29
  %conv8.i = trunc i64 %shr.i to i32
  store i32 %conv8.i, ptr %Nh.i, align 4
  store i32 %shl.i, ptr %0, align 16
  %num.i = getelementptr inbounds i8, ptr %c, i64 104
  %cmp33.not.i = icmp ult i64 %n, 64
  br i1 %cmp33.not.i, label %if.then41.i, label %if.end38.i

if.end38.i:                                       ; preds = %if.end32.i
  %div47.i = lshr i64 %n, 6
  call fastcc void @sha256_block_data_order(ptr noundef nonnull %c, ptr noundef %d, i64 noundef %div47.i)
  %mul.i = and i64 %n, -64
  %add.ptr36.i = getelementptr inbounds i8, ptr %d, i64 %mul.i
  %sub37.i = and i64 %n, 63
  %cmp39.not.i = icmp eq i64 %sub37.i, 0
  br i1 %cmp39.not.i, label %SHA256_Update.exit, label %if.then41.i

if.then41.i:                                      ; preds = %if.end32.i, %if.end38.i
  %data.1.i21 = phi ptr [ %add.ptr36.i, %if.end38.i ], [ %d, %if.end32.i ]
  %len.addr.1.i20 = phi i64 [ %sub37.i, %if.end38.i ], [ %n, %if.end32.i ]
  %data42.i = getelementptr inbounds i8, ptr %c, i64 40
  %conv44.i = trunc i64 %len.addr.1.i20 to i32
  store i32 %conv44.i, ptr %num.i, align 8
  call void @llvm.memcpy.p0.p0.i64(ptr nonnull align 8 %data42.i, ptr align 1 %data.1.i21, i64 %len.addr.1.i20, i1 false)
  br label %SHA256_Update.exit

SHA256_Update.exit:                               ; preds = %entry, %if.end38.i, %if.then41.i
  %data.i = getelementptr inbounds i8, ptr %c, i64 40
  %num.i3 = getelementptr inbounds i8, ptr %c, i64 104
  %1 = load i32, ptr %num.i3, align 8
  %conv.i4 = zext i32 %1 to i64
  %arrayidx.i = getelementptr inbounds i8, ptr %data.i, i64 %conv.i4
  store i8 -128, ptr %arrayidx.i, align 1
  %inc.i5 = add nuw nsw i64 %conv.i4, 1
  %cmp.i6 = icmp ugt i32 %1, 55
  br i1 %cmp.i6, label %if.then.i, label %if.end.i7

if.then.i:                                        ; preds = %SHA256_Update.exit
  %add.ptr.i13 = getelementptr inbounds i8, ptr %data.i, i64 %inc.i5
  %sub.i14 = sub nsw i64 63, %conv.i4
  call void @llvm.memset.p0.i64(ptr nonnull align 1 %add.ptr.i13, i8 0, i64 %sub.i14, i1 false)
  call fastcc void @sha256_block_data_order(ptr noundef nonnull %c, ptr noundef nonnull %data.i, i64 noundef 1)
  br label %if.end.i7

if.end.i7:                                        ; preds = %if.then.i, %SHA256_Update.exit
  %n.0.i = phi i64 [ 0, %if.then.i ], [ %inc.i5, %SHA256_Update.exit ]
  %add.ptr2.i = getelementptr inbounds i8, ptr %data.i, i64 %n.0.i
  %sub3.i = sub nuw nsw i64 56, %n.0.i
  call void @llvm.memset.p0.i64(ptr nonnull align 1 %add.ptr2.i, i8 0, i64 %sub3.i, i1 false)
  %Nh.i8 = getelementptr inbounds i8, ptr %c, i64 36
  %2 = load i32, ptr %Nh.i8, align 4
  %or7.i.i = call noundef i32 @llvm.bswap.i32(i32 %2)
  %arrayidx5.i = getelementptr inbounds i8, ptr %c, i64 96
  store i32 %or7.i.i, ptr %arrayidx5.i, align 16
  %3 = load i32, ptr %0, align 16
  %or7.i34.i = call noundef i32 @llvm.bswap.i32(i32 %3)
  %arrayidx8.i10 = getelementptr inbounds i8, ptr %c, i64 100
  store i32 %or7.i34.i, ptr %arrayidx8.i10, align 4
  call fastcc void @sha256_block_data_order(ptr noundef nonnull %c, ptr noundef nonnull %data.i, i64 noundef 1)
  call void @llvm.memset.p0.i64(ptr noundef nonnull align 8 dereferenceable(68) %data.i, i8 0, i64 68, i1 false)
  %4 = load i32, ptr %md_len.i, align 4
  %cond.i = icmp eq i32 %4, 32
  br i1 %cond.i, label %for.body.i, label %sw.default.i

for.body.i:                                       ; preds = %if.end.i7, %for.body.i
  %indvars.iv45.i = phi i64 [ %indvars.iv.next46.i, %for.body.i ], [ 0, %if.end.i7 ]
  %md.addr.041.i = phi ptr [ %add.ptr13.i, %for.body.i ], [ %spec.store.select, %if.end.i7 ]
  %arrayidx12.i12 = getelementptr inbounds [8 x i32], ptr %c, i64 0, i64 %indvars.iv45.i
  %5 = load i32, ptr %arrayidx12.i12, align 4
  %or7.i.i.i = call noundef i32 @llvm.bswap.i32(i32 %5)
  store i32 %or7.i.i.i, ptr %md.addr.041.i, align 1
  %add.ptr13.i = getelementptr inbounds i8, ptr %md.addr.041.i, i64 4
  %indvars.iv.next46.i = add nuw nsw i64 %indvars.iv45.i, 1
  %exitcond.not.i = icmp eq i64 %indvars.iv.next46.i, 8
  br i1 %exitcond.not.i, label %SHA256_Final.exit, label %for.body.i, !llvm.loop !8

sw.default.i:                                     ; preds = %if.end.i7
  %6 = add i32 %4, -33
  %or.cond = icmp ult i32 %6, -29
  br i1 %or.cond, label %SHA256_Final.exit, label %for.body24.i.preheader

for.body24.i.preheader:                           ; preds = %sw.default.i
  %div33.i = lshr i32 %4, 2
  %7 = zext nneg i32 %div33.i to i64
  br label %for.body24.i

for.body24.i:                                     ; preds = %for.body24.i.preheader, %for.body24.i
  %indvars.iv.i = phi i64 [ %indvars.iv.next.i, %for.body24.i ], [ 0, %for.body24.i.preheader ]
  %md.addr.139.i = phi ptr [ %add.ptr28.i, %for.body24.i ], [ %spec.store.select, %for.body24.i.preheader ]
  %arrayidx27.i = getelementptr inbounds [8 x i32], ptr %c, i64 0, i64 %indvars.iv.i
  %8 = load i32, ptr %arrayidx27.i, align 4
  %or7.i.i35.i = call noundef i32 @llvm.bswap.i32(i32 %8)
  store i32 %or7.i.i35.i, ptr %md.addr.139.i, align 1
  %add.ptr28.i = getelementptr inbounds i8, ptr %md.addr.139.i, i64 4
  %indvars.iv.next.i = add nuw nsw i64 %indvars.iv.i, 1
  %exitcond.not = icmp eq i64 %indvars.iv.next.i, %7
  br i1 %exitcond.not, label %SHA256_Final.exit, label %for.body24.i, !llvm.loop !9

SHA256_Final.exit:                                ; preds = %for.body24.i, %for.body.i, %sw.default.i
  ret ptr %spec.store.select
}